target datalayout = "e-m:e-p270:32:32-p271:32:32-p272:64:64-i64:64-i128:128-f80:128-n8:16:32:64-S128"
target triple = "x86_64-pc-linux-gnu"

@.str.2 = private unnamed_addr constant [7 x i8] c"family\00", align 1
@.str.3 = private unnamed_addr constant [6 x i8] c"level\00", align 1
@.str.4 = private unnamed_addr constant [8 x i8] c"optname\00", align 1
@sockopt_family_m.rbimpl_id = internal global i64 0, align 8
@sockopt_level.rbimpl_id = internal global i64 0, align 8
@sockopt_optname.rbimpl_id = internal global i64 0, align 8
@rb_eTypeError = external global i64, align 8
@.str.104 = private unnamed_addr constant [42 x i8] c"ipv4_multicast_ttl socket option expected\00", align 1

; Function Attrs: inlinehint nounwind sspstrong willreturn memory(read) uwtable
define internal i64 @rb_intern_const(ptr noundef nonnull %0) #5 {
  %2 = alloca ptr, align 8
  %3 = alloca i64, align 8
  store ptr %0, ptr %2, align 8, !tbaa !19
  call void @llvm.lifetime.start.p0(i64 8, ptr %3) #17
  %4 = load ptr, ptr %2, align 8, !tbaa !19
  %5 = call i64 @strlen(ptr noundef %4) #20
  store i64 %5, ptr %3, align 8, !tbaa !10
  %6 = load ptr, ptr %2, align 8, !tbaa !19
  %7 = load i64, ptr %3, align 8, !tbaa !10
  %8 = call i64 @rb_intern2(ptr noundef %6, i64 noundef %7)
  call void @llvm.lifetime.end.p0(i64 8, ptr %3) #17
  ret i64 %8
}

; Function Attrs: inlinehint nounwind sspstrong willreturn memory(none) uwtable
define internal zeroext i1 @RB_FIXNUM_P(i64 noundef %0) #7 {
  %2 = alloca i64, align 8
  store i64 %0, ptr %2, align 8, !tbaa !10
  %3 = load i64, ptr %2, align 8, !tbaa !10
  %4 = and i64 %3, 1
  %5 = icmp ne i64 %4, 0
  ret i1 %5
}

; Function Attrs: inlinehint nounwind sspstrong memory(argmem: readwrite, inaccessiblemem: readwrite) uwtable
define internal i64 @rbimpl_intern_const(ptr noundef nonnull %0, ptr noundef nonnull %1) #4 {
  %3 = alloca ptr, align 8
  %4 = alloca ptr, align 8
  store ptr %0, ptr %3, align 8, !tbaa !16
  store ptr %1, ptr %4, align 8, !tbaa !19
  br label %5

5:                                                ; preds = %10, %2
  %6 = load ptr, ptr %3, align 8, !tbaa !16
  %7 = load i64, ptr %6, align 8, !tbaa !10
  %8 = icmp ne i64 %7, 0
  %9 = xor i1 %8, true
  br i1 %9, label %10, label %14

10:                                               ; preds = %5
  %11 = load ptr, ptr %4, align 8, !tbaa !19
  %12 = call i64 @rb_intern_const(ptr noundef %11) #20
  %13 = load ptr, ptr %3, align 8, !tbaa !16
  store i64 %12, ptr %13, align 8, !tbaa !10
  br label %5, !llvm.loop !21

14:                                               ; preds = %5
  %15 = load ptr, ptr %3, align 8, !tbaa !16
  %16 = load i64, ptr %15, align 8, !tbaa !10
  ret i64 %16
}

; Function Attrs: nounwind sspstrong uwtable
define internal i32 @sockopt_optname(i64 noundef %0) #0 {
  %2 = alloca i64, align 8
  %3 = alloca i64, align 8
  store i64 %0, ptr %2, align 8, !tbaa !10
  %4 = load i64, ptr %2, align 8, !tbaa !10
  %5 = call i64 @rbimpl_intern_const(ptr noundef @sockopt_optname.rbimpl_id, ptr noundef @.str.4) #18
  store i64 %5, ptr %3, align 8, !tbaa !10
  %6 = load i64, ptr %3, align 8, !tbaa !10
  %7 = call i64 @rb_attr_get(i64 noundef %4, i64 noundef %6)
  %8 = call i32 @rb_num2int_inline(i64 noundef %7)
  ret i32 %8
}

; Function Attrs: nounwind sspstrong uwtable
define internal i32 @sockopt_level(i64 noundef %0) #0 {
  %2 = alloca i64, align 8
  %3 = alloca i64, align 8
  store i64 %0, ptr %2, align 8, !tbaa !10
  %4 = load i64, ptr %2, align 8, !tbaa !10
  %5 = call i64 @rbimpl_intern_const(ptr noundef @sockopt_level.rbimpl_id, ptr noundef @.str.3) #18
  store i64 %5, ptr %3, align 8, !tbaa !10
  %6 = load i64, ptr %3, align 8, !tbaa !10
  %7 = call i64 @rb_attr_get(i64 noundef %4, i64 noundef %6)
  %8 = call i32 @rb_num2int_inline(i64 noundef %7)
  ret i32 %8
}

; Function Attrs: inlinehint nounwind sspstrong uwtable
define internal i32 @rb_num2int_inline(i64 noundef %0) #3 {
  %2 = alloca i64, align 8
  %3 = alloca i64, align 8
  store i64 %0, ptr %2, align 8, !tbaa !10
  call void @llvm.lifetime.start.p0(i64 8, ptr %3) #17
  %4 = load i64, ptr %2, align 8, !tbaa !10
  %5 = call zeroext i1 @RB_FIXNUM_P(i64 noundef %4) #19
  br i1 %5, label %6, label %9

6:                                                ; preds = %1
  %7 = load i64, ptr %2, align 8, !tbaa !10
  %8 = call i64 @rb_fix2int(i64 noundef %7)
  store i64 %8, ptr %3, align 8, !tbaa !10
  br label %12

9:                                                ; preds = %1
  %10 = load i64, ptr %2, align 8, !tbaa !10
  %11 = call i64 @rb_num2int(i64 noundef %10)
  store i64 %11, ptr %3, align 8, !tbaa !10
  br label %12

12:                                               ; preds = %9, %6
  %13 = load i64, ptr %3, align 8, !tbaa !10
  %14 = trunc i64 %13 to i32
  call void @llvm.lifetime.end.p0(i64 8, ptr %3) #17
  ret i32 %14
}

; Function Attrs: nounwind sspstrong uwtable
define internal i64 @sockopt_family_m(i64 noundef %0) #0 {
  %2 = alloca i64, align 8
  %3 = alloca i64, align 8
  store i64 %0, ptr %2, align 8, !tbaa !10
  %4 = load i64, ptr %2, align 8, !tbaa !10
  %5 = call i64 @rbimpl_intern_const(ptr noundef @sockopt_family_m.rbimpl_id, ptr noundef @.str.2) #18
  store i64 %5, ptr %3, align 8, !tbaa !10
  %6 = load i64, ptr %3, align 8, !tbaa !10
  %7 = call i64 @rb_attr_get(i64 noundef %4, i64 noundef %6)
  ret i64 %7
}

; Function Attrs: nounwind sspstrong uwtable
define internal i64 @sockopt_ipv4_multicast_ttl(i64 noundef %0) #0 {
  %2 = alloca i64, align 8
  %3 = alloca i32, align 4
  %4 = alloca i32, align 4
  %5 = alloca i32, align 4
  store i64 %0, ptr %2, align 8, !tbaa !10
  call void @llvm.lifetime.start.p0(i64 4, ptr %3) #17
  %6 = load i64, ptr %2, align 8, !tbaa !10
  %7 = call i64 @sockopt_family_m(i64 noundef %6)
  %8 = call i32 @rb_num2int_inline(i64 noundef %7)
  store i32 %8, ptr %3, align 4, !tbaa !6
  call void @llvm.lifetime.start.p0(i64 4, ptr %4) #17
  %9 = load i64, ptr %2, align 8, !tbaa !10
  %10 = call i32 @sockopt_level(i64 noundef %9)
  store i32 %10, ptr %4, align 4, !tbaa !6
  call void @llvm.lifetime.start.p0(i64 4, ptr %5) #17
  %11 = load i64, ptr %2, align 8, !tbaa !10
  %12 = call i32 @sockopt_optname(i64 noundef %11)
  store i32 %12, ptr %5, align 4, !tbaa !6
  %13 = load i32, ptr %3, align 4, !tbaa !6
  %14 = icmp eq i32 %13, 2
  br i1 %14, label %15, label %24

15:                                               ; preds = %1
  %16 = load i32, ptr %4, align 4, !tbaa !6
  %17 = icmp eq i32 %16, 0
  br i1 %17, label %18, label %24

18:                                               ; preds = %15
  %19 = load i32, ptr %5, align 4, !tbaa !6
  %20 = icmp eq i32 %19, 33
  br i1 %20, label %21, label %24

21:                                               ; preds = %18
  %22 = load i64, ptr %2, align 8, !tbaa !10
  %23 = call i64 @sockopt_int(i64 noundef %22)
  call void @llvm.lifetime.end.p0(i64 4, ptr %5) #17
  call void @llvm.lifetime.end.p0(i64 4, ptr %4) #17
  call void @llvm.lifetime.end.p0(i64 4, ptr %3) #17
  ret i64 %23

24:                                               ; preds = %18, %15, %1
  %25 = load i64, ptr @rb_eTypeError, align 8, !tbaa !10
  call void (i64, ptr, ...) @rb_raise(i64 noundef %25, ptr noundef @.str.104) #21
  unreachable
}