; Function Attrs: nounwind sspstrong uwtable
define internal range(i64 1, 0) i64 @sockopt_ipv4_multicast_ttl(i64 noundef %0) #0 {
  %.pr.i.i = load i64, ptr @sockopt_family_m.rbimpl_id, align 8, !tbaa !6
  %.not4.i.i = icmp eq i64 %.pr.i.i, 0
  br i1 %.not4.i.i, label %.lr.ph.i.i, label %sockopt_family_m.exit

.lr.ph.i.i:                                       ; preds = %1, %.lr.ph.i.i
  %2 = tail call i64 @rb_intern2(ptr noundef nonnull @.str.2, i64 noundef 6) #6
  store i64 %2, ptr @sockopt_family_m.rbimpl_id, align 8, !tbaa !6
  %.not.i.i = icmp eq i64 %2, 0
  br i1 %.not.i.i, label %.lr.ph.i.i, label %sockopt_family_m.exit, !llvm.loop !10

sockopt_family_m.exit:                            ; preds = %.lr.ph.i.i, %1
  %.lcssa.i.i = phi i64 [ %.pr.i.i, %1 ], [ %2, %.lr.ph.i.i ]
  %3 = tail call i64 @rb_attr_get(i64 noundef %0, i64 noundef %.lcssa.i.i) #6
  %4 = and i64 %3, 1
  %.not.i = icmp eq i64 %4, 0
  br i1 %.not.i, label %7, label %5

5:                                                ; preds = %sockopt_family_m.exit
  %6 = tail call i64 @rb_fix2int(i64 noundef %3) #6
  br label %rb_num2int_inline.exit

7:                                                ; preds = %sockopt_family_m.exit
  %8 = tail call i64 @rb_num2int(i64 noundef %3) #6
  br label %rb_num2int_inline.exit

rb_num2int_inline.exit:                           ; preds = %5, %7
  %.0.i = phi i64 [ %6, %5 ], [ %8, %7 ]
  %.pr.i.i10 = load i64, ptr @sockopt_level.rbimpl_id, align 8, !tbaa !6
  %.not4.i.i11 = icmp eq i64 %.pr.i.i10, 0
  br i1 %.not4.i.i11, label %.lr.ph.i.i13, label %rbimpl_intern_const.exit.i

.lr.ph.i.i13:                                     ; preds = %rb_num2int_inline.exit, %.lr.ph.i.i13
  %9 = tail call i64 @rb_intern2(ptr noundef nonnull @.str.3, i64 noundef 5) #6
  store i64 %9, ptr @sockopt_level.rbimpl_id, align 8, !tbaa !6
  %.not.i.i14 = icmp eq i64 %9, 0
  br i1 %.not.i.i14, label %.lr.ph.i.i13, label %rbimpl_intern_const.exit.i, !llvm.loop !10

rbimpl_intern_const.exit.i:                       ; preds = %.lr.ph.i.i13, %rb_num2int_inline.exit
  %.lcssa.i.i12 = phi i64 [ %.pr.i.i10, %rb_num2int_inline.exit ], [ %9, %.lr.ph.i.i13 ]
  %10 = tail call i64 @rb_attr_get(i64 noundef %0, i64 noundef %.lcssa.i.i12) #6
  %11 = and i64 %10, 1
  %.not.i2.i = icmp eq i64 %11, 0
  br i1 %.not.i2.i, label %14, label %12

12:                                               ; preds = %rbimpl_intern_const.exit.i
  %13 = tail call i64 @rb_fix2int(i64 noundef %10) #6
  br label %sockopt_level.exit

14:                                               ; preds = %rbimpl_intern_const.exit.i
  %15 = tail call i64 @rb_num2int(i64 noundef %10) #6
  br label %sockopt_level.exit

sockopt_level.exit:                               ; preds = %12, %14
  %.0.i.i = phi i64 [ %13, %12 ], [ %15, %14 ]
  %.pr.i.i15 = load i64, ptr @sockopt_optname.rbimpl_id, align 8, !tbaa !6
  %.not4.i.i16 = icmp eq i64 %.pr.i.i15, 0
  br i1 %.not4.i.i16, label %.lr.ph.i.i21, label %rbimpl_intern_const.exit.i17

.lr.ph.i.i21:                                     ; preds = %sockopt_level.exit, %.lr.ph.i.i21
  %16 = tail call i64 @rb_intern2(ptr noundef nonnull @.str.4, i64 noundef 7) #6
  store i64 %16, ptr @sockopt_optname.rbimpl_id, align 8, !tbaa !6
  %.not.i.i22 = icmp eq i64 %16, 0
  br i1 %.not.i.i22, label %.lr.ph.i.i21, label %rbimpl_intern_const.exit.i17, !llvm.loop !10

rbimpl_intern_const.exit.i17:                     ; preds = %.lr.ph.i.i21, %sockopt_level.exit
  %.lcssa.i.i18 = phi i64 [ %.pr.i.i15, %sockopt_level.exit ], [ %16, %.lr.ph.i.i21 ]
  %17 = tail call i64 @rb_attr_get(i64 noundef %0, i64 noundef %.lcssa.i.i18) #6
  %18 = and i64 %17, 1
  %.not.i2.i19 = icmp eq i64 %18, 0
  br i1 %.not.i2.i19, label %21, label %19

19:                                               ; preds = %rbimpl_intern_const.exit.i17
  %20 = tail call i64 @rb_fix2int(i64 noundef %17) #6
  br label %sockopt_optname.exit

21:                                               ; preds = %rbimpl_intern_const.exit.i17
  %22 = tail call i64 @rb_num2int(i64 noundef %17) #6
  br label %sockopt_optname.exit

sockopt_optname.exit:                             ; preds = %19, %21
  %.0.i.i20 = phi i64 [ %20, %19 ], [ %22, %21 ]
  %23 = and i64 %.0.i, 4294967295
  %24 = icmp eq i64 %23, 2
  %25 = and i64 %.0.i.i, 4294967295
  %26 = icmp eq i64 %25, 0
  %or.cond = select i1 %24, i1 %26, i1 false
  %27 = and i64 %.0.i.i20, 4294967295
  %28 = icmp eq i64 %27, 33
  %or.cond3 = select i1 %or.cond, i1 %28, i1 false
  br i1 %or.cond3, label %29, label %31

29:                                               ; preds = %sockopt_optname.exit
  %30 = tail call i64 @sockopt_int(i64 noundef %0)
  ret i64 %30

31:                                               ; preds = %sockopt_optname.exit
  %32 = load i64, ptr @rb_eTypeError, align 8, !tbaa !6
  tail call void (i64, ptr, ...) @rb_raise(i64 noundef %32, ptr noundef nonnull @.str.104) #7
  unreachable
}